target datalayout = "e-m:e-p270:32:32-p271:32:32-p272:64:64-i64:64-i128:128-f80:128-n8:16:32:64-S128"
target triple = "x86_64-pc-linux-gnu"

%class.QString = type { %struct.QArrayDataPointer }
%struct.QArrayDataPointer = type { ptr, ptr, i64 }
%class.QObject = type { ptr, %class.QScopedPointer }
%class.QScopedPointer = type { ptr }
%struct.nstime_t = type { i64, i32 }
%class.QBrush = type { %"class.std::unique_ptr" }
%"class.std::unique_ptr" = type { %"struct.std::__uniq_ptr_data" }
%"struct.std::__uniq_ptr_data" = type { %"class.std::__uniq_ptr_impl" }
%"class.std::__uniq_ptr_impl" = type { %"class.std::tuple" }
%"class.std::tuple" = type { %"struct.std::_Tuple_impl" }
%"struct.std::_Tuple_impl" = type { %"struct.std::_Head_base.28" }
%"struct.std::_Head_base.28" = type { ptr }
%class.IOGraph = type <{ %class.QObject, i32, i32, ptr, %class.QString, %class.QString, i8, i8, i8, [5 x i8], ptr, ptr, %class.QString, %class.QString, %class.QBrush, i32, [4 x i8], %class.QString, i32, i32, %struct.nstime_t, i8, [7 x i8], %"class.std::vector", i32, [4 x i8] }>
%"class.std::vector" = type { %"struct.std::_Vector_base" }
%"struct.std::_Vector_base" = type { %"struct.std::_Vector_base<_io_graph_item_t, std::allocator<_io_graph_item_t>>::_Vector_impl" }
%"struct.std::_Vector_base<_io_graph_item_t, std::allocator<_io_graph_item_t>>::_Vector_impl" = type { %"struct.std::_Vector_base<_io_graph_item_t, std::allocator<_io_graph_item_t>>::_Vector_impl_data" }
%"struct.std::_Vector_base<_io_graph_item_t, std::allocator<_io_graph_item_t>>::_Vector_impl_data" = type { ptr, ptr, ptr }
%struct._io_graph_item_t = type { i32, i64, i64, %union.anon.170, %union.anon.171, %union.anon.172, i32, i32, i32, i32 }
%union.anon.170 = type { %struct.nstime_t }
%union.anon.171 = type { %struct.nstime_t }
%union.anon.172 = type { %struct.nstime_t }

@.str.317 = private unnamed_addr constant [87 x i8] c"generated/usr/lib/gcc/x86_64-linux-gnu/12/../../../../include/c++/12/bits/stl_vector.h\00", align 1
@__PRETTY_FUNCTION__._ZNKSt6vectorI16_io_graph_item_tSaIS0_EEixEm = private unnamed_addr constant [143 x i8] c"const_reference std::vector<_io_graph_item_t>::operator[](size_type) const [_Tp = _io_graph_item_t, _Alloc = std::allocator<_io_graph_item_t>]\00", align 1
@.str.318 = private unnamed_addr constant [19 x i8] c"__n < this->size()\00", align 1

; Function Attrs: mustprogress nounwind null_pointer_is_valid sspstrong uwtable
define linkonce_odr noundef i64 @_ZNKSt6vectorI16_io_graph_item_tSaIS0_EE4sizeEv(ptr noundef align 8 dereferenceable_or_null(24) %0) #7 comdat align 2 {
  %2 = alloca ptr, align 8
  store ptr %0, ptr %2, align 8
  %3 = load ptr, ptr %2, align 8
  %4 = getelementptr inbounds nuw %"struct.std::_Vector_base", ptr %3, i32 0, i32 0
  %5 = getelementptr inbounds nuw %"struct.std::_Vector_base<_io_graph_item_t, std::allocator<_io_graph_item_t>>::_Vector_impl_data", ptr %4, i32 0, i32 1
  %6 = load ptr, ptr %5, align 8
  %7 = getelementptr inbounds nuw %"struct.std::_Vector_base", ptr %3, i32 0, i32 0
  %8 = getelementptr inbounds nuw %"struct.std::_Vector_base<_io_graph_item_t, std::allocator<_io_graph_item_t>>::_Vector_impl_data", ptr %7, i32 0, i32 0
  %9 = load ptr, ptr %8, align 8
  %10 = ptrtoint ptr %6 to i64
  %11 = ptrtoint ptr %9 to i64
  %12 = sub i64 %10, %11
  %13 = sdiv exact i64 %12, 88
  ret i64 %13
}

; Function Attrs: mustprogress nounwind null_pointer_is_valid sspstrong uwtable
define linkonce_odr noundef align 8 dereferenceable(88) ptr @_ZNKSt6vectorI16_io_graph_item_tSaIS0_EEixEm(ptr noundef align 8 dereferenceable_or_null(24) %0, i64 noundef %1) #7 comdat align 2 {
  %3 = alloca ptr, align 8
  %4 = alloca i64, align 8
  store ptr %0, ptr %3, align 8
  store i64 %1, ptr %4, align 8
  %5 = load ptr, ptr %3, align 8
  br label %6

6:                                                ; preds = %2
  %7 = load i64, ptr %4, align 8
  %8 = call noundef i64 @_ZNKSt6vectorI16_io_graph_item_tSaIS0_EE4sizeEv(ptr noundef align 8 dereferenceable_or_null(24) %5) #2
  %9 = icmp ult i64 %7, %8
  %10 = xor i1 %9, true
  %11 = zext i1 %10 to i64
  %12 = call i64 @llvm.expect.i64(i64 %11, i64 0)
  %13 = icmp ne i64 %12, 0
  br i1 %13, label %14, label %15

14:                                               ; preds = %6
  call void @_ZSt21__glibcxx_assert_failPKciS0_S0_(ptr noundef @.str.317, i32 noundef 1142, ptr noundef @__PRETTY_FUNCTION__._ZNKSt6vectorI16_io_graph_item_tSaIS0_EEixEm, ptr noundef @.str.318) #33
  unreachable

15:                                               ; preds = %6
  br label %16

16:                                               ; preds = %15
  br label %17

17:                                               ; preds = %16
  %18 = getelementptr inbounds nuw %"struct.std::_Vector_base", ptr %5, i32 0, i32 0
  %19 = getelementptr inbounds nuw %"struct.std::_Vector_base<_io_graph_item_t, std::allocator<_io_graph_item_t>>::_Vector_impl_data", ptr %18, i32 0, i32 0
  %20 = load ptr, ptr %19, align 8
  %21 = load i64, ptr %4, align 8
  %22 = getelementptr %struct._io_graph_item_t, ptr %20, i64 %21
  ret ptr %22
}

; Function Attrs: mustprogress nounwind null_pointer_is_valid sspstrong uwtable
define noundef i32 @_ZNK7IOGraph14packetFromTimeEd(ptr noundef align 8 dereferenceable_or_null(252) %0, double noundef %1) #7 align 2 {
  %3 = alloca i32, align 4
  %4 = alloca ptr, align 8
  %5 = alloca double, align 8
  %6 = alloca i32, align 4
  %7 = alloca i32, align 4
  store ptr %0, ptr %4, align 8
  store double %1, ptr %5, align 8
  %8 = load ptr, ptr %4, align 8
  call void @llvm.lifetime.start.p0(i64 4, ptr %6) #2
  %9 = load double, ptr %5, align 8
  %10 = fmul double %9, 1.000000e+06
  %11 = getelementptr inbounds nuw %class.IOGraph, ptr %8, i32 0, i32 19
  %12 = load i32, ptr %11, align 4
  %13 = sitofp i32 %12 to double
  %14 = fdiv double %10, %13
  %15 = fptosi double %14 to i32
  store i32 %15, ptr %6, align 4
  %16 = load i32, ptr %6, align 4
  %17 = icmp sge i32 %16, 0
  br i1 %17, label %18, label %47

18:                                               ; preds = %2
  %19 = load i32, ptr %6, align 4
  %20 = getelementptr inbounds nuw %class.IOGraph, ptr %8, i32 0, i32 24
  %21 = load i32, ptr %20, align 8
  %22 = icmp sle i32 %19, %21
  br i1 %22, label %23, label %47

23:                                               ; preds = %18
  %24 = getelementptr inbounds nuw %class.IOGraph, ptr %8, i32 0, i32 15
  %25 = load i32, ptr %24, align 8
  switch i32 %25, label %40 [
    i32 6, label %26
    i32 7, label %33
  ]

26:                                               ; preds = %23
  %27 = getelementptr inbounds nuw %class.IOGraph, ptr %8, i32 0, i32 23
  %28 = load i32, ptr %6, align 4
  %29 = sext i32 %28 to i64
  %30 = call noundef align 8 dereferenceable(88) ptr @_ZNKSt6vectorI16_io_graph_item_tSaIS0_EEixEm(ptr noundef align 8 dereferenceable_or_null(24) %27, i64 noundef %29) #2
  %31 = getelementptr inbounds nuw %struct._io_graph_item_t, ptr %30, i32 0, i32 8
  %32 = load i32, ptr %31, align 8
  store i32 %32, ptr %3, align 4
  store i32 1, ptr %7, align 4
  br label %48

33:                                               ; preds = %23
  %34 = getelementptr inbounds nuw %class.IOGraph, ptr %8, i32 0, i32 23
  %35 = load i32, ptr %6, align 4
  %36 = sext i32 %35 to i64
  %37 = call noundef align 8 dereferenceable(88) ptr @_ZNKSt6vectorI16_io_graph_item_tSaIS0_EEixEm(ptr noundef align 8 dereferenceable_or_null(24) %34, i64 noundef %36) #2
  %38 = getelementptr inbounds nuw %struct._io_graph_item_t, ptr %37, i32 0, i32 7
  %39 = load i32, ptr %38, align 4
  store i32 %39, ptr %3, align 4
  store i32 1, ptr %7, align 4
  br label %48

40:                                               ; preds = %23
  %41 = getelementptr inbounds nuw %class.IOGraph, ptr %8, i32 0, i32 23
  %42 = load i32, ptr %6, align 4
  %43 = sext i32 %42 to i64
  %44 = call noundef align 8 dereferenceable(88) ptr @_ZNKSt6vectorI16_io_graph_item_tSaIS0_EEixEm(ptr noundef align 8 dereferenceable_or_null(24) %41, i64 noundef %43) #2
  %45 = getelementptr inbounds nuw %struct._io_graph_item_t, ptr %44, i32 0, i32 9
  %46 = load i32, ptr %45, align 4
  store i32 %46, ptr %3, align 4
  store i32 1, ptr %7, align 4
  br label %48

47:                                               ; preds = %18, %2
  store i32 -1, ptr %3, align 4
  store i32 1, ptr %7, align 4
  br label %48

48:                                               ; preds = %47, %40, %33, %26
  call void @llvm.lifetime.end.p0(i64 4, ptr %6) #2
  %49 = load i32, ptr %3, align 4
  ret i32 %49
}