; Function Attrs: mustprogress nounwind null_pointer_is_valid sspstrong uwtable
define noundef i32 @_ZNK7IOGraph14packetFromTimeEd(ptr noundef readonly align 8 captures(none) dereferenceable_or_null(252) %0, double noundef %1) local_unnamed_addr #8 align 2 {
  %3 = fmul double %1, 1.000000e+06
  %4 = getelementptr inbounds nuw i8, ptr %0, i64 196
  %5 = load i32, ptr %4, align 4
  %6 = sitofp i32 %5 to double
  %7 = fdiv double %3, %6
  %8 = fptosi double %7 to i32
  %9 = icmp sgt i32 %8, -1
  br i1 %9, label %10, label %37

10:                                               ; preds = %2
  %11 = getelementptr inbounds nuw i8, ptr %0, i64 248
  %12 = load i32, ptr %11, align 8
  %.not = icmp slt i32 %12, %8
  br i1 %.not, label %37, label %13

13:                                               ; preds = %10
  %14 = getelementptr inbounds nuw i8, ptr %0, i64 160
  %15 = load i32, ptr %14, align 8
  %16 = getelementptr inbounds nuw i8, ptr %0, i64 224
  %17 = zext nneg i32 %8 to i64
  %18 = getelementptr inbounds nuw i8, ptr %0, i64 232
  %19 = load ptr, ptr %18, align 8
  %20 = load ptr, ptr %16, align 8
  %21 = ptrtoint ptr %19 to i64
  %22 = ptrtoint ptr %20 to i64
  %23 = sub i64 %21, %22
  %24 = sdiv exact i64 %23, 88
  %.not.i10 = icmp ugt i64 %24, %17
  switch i32 %15, label %33 [
    i32 6, label %25
    i32 7, label %29
  ]

25:                                               ; preds = %13
  br i1 %.not.i10, label %_ZNKSt6vectorI16_io_graph_item_tSaIS0_EEixEm.exit, label %26, !prof !155

26:                                               ; preds = %25
  tail call void @_ZSt21__glibcxx_assert_failPKciS0_S0_(ptr noundef nonnull @.str.317, i32 noundef 1142, ptr noundef nonnull @__PRETTY_FUNCTION__._ZNKSt6vectorI16_io_graph_item_tSaIS0_EEixEm, ptr noundef nonnull @.str.318) #37
  unreachable

_ZNKSt6vectorI16_io_graph_item_tSaIS0_EEixEm.exit: ; preds = %25
  %27 = getelementptr %struct._io_graph_item_t, ptr %20, i64 %17, i32 8
  %28 = load i32, ptr %27, align 8
  br label %37

29:                                               ; preds = %13
  br i1 %.not.i10, label %_ZNKSt6vectorI16_io_graph_item_tSaIS0_EEixEm.exit9, label %30, !prof !155

30:                                               ; preds = %29
  tail call void @_ZSt21__glibcxx_assert_failPKciS0_S0_(ptr noundef nonnull @.str.317, i32 noundef 1142, ptr noundef nonnull @__PRETTY_FUNCTION__._ZNKSt6vectorI16_io_graph_item_tSaIS0_EEixEm, ptr noundef nonnull @.str.318) #37
  unreachable

_ZNKSt6vectorI16_io_graph_item_tSaIS0_EEixEm.exit9: ; preds = %29
  %31 = getelementptr %struct._io_graph_item_t, ptr %20, i64 %17, i32 7
  %32 = load i32, ptr %31, align 4
  br label %37

33:                                               ; preds = %13
  br i1 %.not.i10, label %_ZNKSt6vectorI16_io_graph_item_tSaIS0_EEixEm.exit11, label %34, !prof !155

34:                                               ; preds = %33
  tail call void @_ZSt21__glibcxx_assert_failPKciS0_S0_(ptr noundef nonnull @.str.317, i32 noundef 1142, ptr noundef nonnull @__PRETTY_FUNCTION__._ZNKSt6vectorI16_io_graph_item_tSaIS0_EEixEm, ptr noundef nonnull @.str.318) #37
  unreachable

_ZNKSt6vectorI16_io_graph_item_tSaIS0_EEixEm.exit11: ; preds = %33
  %35 = getelementptr %struct._io_graph_item_t, ptr %20, i64 %17, i32 9
  %36 = load i32, ptr %35, align 4
  br label %37

37:                                               ; preds = %2, %10, %_ZNKSt6vectorI16_io_graph_item_tSaIS0_EEixEm.exit11, %_ZNKSt6vectorI16_io_graph_item_tSaIS0_EEixEm.exit9, %_ZNKSt6vectorI16_io_graph_item_tSaIS0_EEixEm.exit
  %.0 = phi i32 [ %36, %_ZNKSt6vectorI16_io_graph_item_tSaIS0_EEixEm.exit11 ], [ %32, %_ZNKSt6vectorI16_io_graph_item_tSaIS0_EEixEm.exit9 ], [ %28, %_ZNKSt6vectorI16_io_graph_item_tSaIS0_EEixEm.exit ], [ -1, %10 ], [ -1, %2 ]
  ret i32 %.0
}